; Function Attrs: mustprogress nounwind uwtable
define internal void @_ZL16free_data_commonPv(ptr noundef %0) #1 personality ptr @__gxx_personality_v0 {
  %2 = icmp eq ptr %0, null
  br i1 %2, label %42, label %3

3:                                                ; preds = %1
  %4 = getelementptr inbounds i8, ptr %0, i64 176
  %5 = load ptr, ptr %4, align 8
  %.not.i.i.i.i.i = icmp eq ptr %5, null
  br i1 %.not.i.i.i.i.i, label %_ZN21t_methoddata_distanceD2Ev.exit, label %6

6:                                                ; preds = %3
  %7 = getelementptr inbounds i8, ptr %5, i64 8
  %8 = load atomic i64, ptr %7 acquire, align 8
  %9 = icmp eq i64 %8, 4294967297
  %10 = trunc i64 %8 to i32
  br i1 %9, label %11, label %16

11:                                               ; preds = %6
  store i32 0, ptr %7, align 8
  %12 = getelementptr inbounds i8, ptr %5, i64 12
  store i32 0, ptr %12, align 4
  %13 = load ptr, ptr %5, align 8
  %14 = getelementptr inbounds i8, ptr %13, i64 16
  %15 = load ptr, ptr %14, align 8
  tail call void %15(ptr noundef nonnull align 8 dereferenceable(16) %5) #13
  br label %_ZNSt16_Sp_counted_baseILN9__gnu_cxx12_Lock_policyE2EE24_M_release_last_use_coldEv.exit.sink.split.i.i.i.i.i.i

16:                                               ; preds = %6
  %17 = load i8, ptr @__libc_single_threaded, align 1
  %.not.i.i.i.i.i.i = icmp eq i8 %17, 0
  br i1 %.not.i.i.i.i.i.i, label %20, label %18

18:                                               ; preds = %16
  %19 = add nsw i32 %10, -1
  store i32 %19, ptr %7, align 4
  br label %22

20:                                               ; preds = %16
  %21 = atomicrmw volatile add ptr %7, i32 -1 acq_rel, align 4
  br label %22

22:                                               ; preds = %20, %18
  %.0.i.i.i.i.i.i = phi i32 [ %10, %18 ], [ %21, %20 ]
  %23 = icmp eq i32 %.0.i.i.i.i.i.i, 1
  br i1 %23, label %24, label %_ZN21t_methoddata_distanceD2Ev.exit

24:                                               ; preds = %22
  %25 = load ptr, ptr %5, align 8
  %26 = getelementptr inbounds i8, ptr %25, i64 16
  %27 = load ptr, ptr %26, align 8
  tail call void %27(ptr noundef nonnull align 8 dereferenceable(16) %5) #13
  %28 = getelementptr inbounds i8, ptr %5, i64 12
  %29 = load i8, ptr @__libc_single_threaded, align 1
  %.not.i.i.i.i.i.i.i.i = icmp eq i8 %29, 0
  br i1 %.not.i.i.i.i.i.i.i.i, label %33, label %30

30:                                               ; preds = %24
  %31 = load i32, ptr %28, align 4
  %32 = add nsw i32 %31, -1
  store i32 %32, ptr %28, align 4
  br label %35

33:                                               ; preds = %24
  %34 = atomicrmw volatile add ptr %28, i32 -1 acq_rel, align 4
  br label %35

35:                                               ; preds = %33, %30
  %.0.i.i.i.i.i.i.i.i = phi i32 [ %31, %30 ], [ %34, %33 ]
  %36 = icmp eq i32 %.0.i.i.i.i.i.i.i.i, 1
  br i1 %36, label %_ZNSt16_Sp_counted_baseILN9__gnu_cxx12_Lock_policyE2EE24_M_release_last_use_coldEv.exit.sink.split.i.i.i.i.i.i, label %_ZN21t_methoddata_distanceD2Ev.exit

_ZNSt16_Sp_counted_baseILN9__gnu_cxx12_Lock_policyE2EE24_M_release_last_use_coldEv.exit.sink.split.i.i.i.i.i.i: ; preds = %35, %11
  %37 = load ptr, ptr %5, align 8
  %38 = getelementptr inbounds i8, ptr %37, i64 24
  %39 = load ptr, ptr %38, align 8
  tail call void %39(ptr noundef nonnull align 8 dereferenceable(16) %5) #13
  br label %_ZN21t_methoddata_distanceD2Ev.exit

_ZN21t_methoddata_distanceD2Ev.exit:              ; preds = %3, %22, %35, %_ZNSt16_Sp_counted_baseILN9__gnu_cxx12_Lock_policyE2EE24_M_release_last_use_coldEv.exit.sink.split.i.i.i.i.i.i
  %40 = getelementptr inbounds i8, ptr %0, i64 160
  tail call void @_ZN3gmx20AnalysisNeighborhoodD1Ev(ptr noundef nonnull align 8 dereferenceable(8) %40) #13
  %41 = getelementptr inbounds i8, ptr %0, i64 8
  tail call void @_ZN13gmx_ana_pos_tD1Ev(ptr noundef nonnull align 8 dereferenceable(148) %41) #13
  tail call void @_ZdlPv(ptr noundef nonnull %0) #14
  br label %42

42:                                               ; preds = %_ZN21t_methoddata_distanceD2Ev.exit, %1
  ret void
}